target datalayout = "e-m:e-p270:32:32-p271:32:32-p272:64:64-i64:64-i128:128-f80:128-n8:16:32:64-S128"
target triple = "x86_64-pc-linux-gnu"

%struct.mz_zip_archive_tag = type { i64, i64, i32, i32, i32, ptr, ptr, ptr, ptr, ptr, ptr, ptr, ptr }
%struct.mz_zip_internal_state_tag = type { %struct.mz_zip_array, %struct.mz_zip_array, %struct.mz_zip_array, ptr, ptr, i64, i64 }
%struct.mz_zip_array = type { ptr, i64, i64, i32 }

@.str.23 = private unnamed_addr constant [4 x i8] c"r+b\00", align 1

; Function Attrs: mustprogress uwtable
define i32 @mz_zip_writer_init_from_reader(ptr noundef %0, ptr noundef %1) #5 {
  %3 = alloca i32, align 4
  %4 = alloca ptr, align 8
  %5 = alloca ptr, align 8
  %6 = alloca ptr, align 8
  store ptr %0, ptr %4, align 8
  store ptr %1, ptr %5, align 8
  %7 = load ptr, ptr %4, align 8
  %8 = icmp ne ptr %7, null
  br i1 %8, label %9, label %19

9:                                                ; preds = %2
  %10 = load ptr, ptr %4, align 8
  %11 = getelementptr inbounds %struct.mz_zip_archive_tag, ptr %10, i32 0, i32 12
  %12 = load ptr, ptr %11, align 8
  %13 = icmp ne ptr %12, null
  br i1 %13, label %14, label %19

14:                                               ; preds = %9
  %15 = load ptr, ptr %4, align 8
  %16 = getelementptr inbounds %struct.mz_zip_archive_tag, ptr %15, i32 0, i32 3
  %17 = load i32, ptr %16, align 4
  %18 = icmp ne i32 %17, 1
  br i1 %18, label %19, label %20

19:                                               ; preds = %14, %9, %2
  store i32 0, ptr %3, align 4
  br label %105

20:                                               ; preds = %14
  %21 = load ptr, ptr %4, align 8
  %22 = getelementptr inbounds %struct.mz_zip_archive_tag, ptr %21, i32 0, i32 2
  %23 = load i32, ptr %22, align 8
  %24 = icmp eq i32 %23, 65535
  br i1 %24, label %32, label %25

25:                                               ; preds = %20
  %26 = load ptr, ptr %4, align 8
  %27 = getelementptr inbounds %struct.mz_zip_archive_tag, ptr %26, i32 0, i32 0
  %28 = load i64, ptr %27, align 8
  %29 = add i64 %28, 46
  %30 = add i64 %29, 30
  %31 = icmp ugt i64 %30, 4294967295
  br i1 %31, label %32, label %33

32:                                               ; preds = %25, %20
  store i32 0, ptr %3, align 4
  br label %105

33:                                               ; preds = %25
  %34 = load ptr, ptr %4, align 8
  %35 = getelementptr inbounds %struct.mz_zip_archive_tag, ptr %34, i32 0, i32 12
  %36 = load ptr, ptr %35, align 8
  store ptr %36, ptr %6, align 8
  %37 = load ptr, ptr %6, align 8
  %38 = getelementptr inbounds %struct.mz_zip_internal_state_tag, ptr %37, i32 0, i32 3
  %39 = load ptr, ptr %38, align 8
  %40 = icmp ne ptr %39, null
  br i1 %40, label %41, label %67

41:                                               ; preds = %33
  %42 = load ptr, ptr %4, align 8
  %43 = getelementptr inbounds %struct.mz_zip_archive_tag, ptr %42, i32 0, i32 11
  %44 = load ptr, ptr %43, align 8
  %45 = load ptr, ptr %4, align 8
  %46 = icmp ne ptr %44, %45
  br i1 %46, label %47, label %48

47:                                               ; preds = %41
  store i32 0, ptr %3, align 4
  br label %105

48:                                               ; preds = %41
  %49 = load ptr, ptr %5, align 8
  %50 = icmp ne ptr %49, null
  br i1 %50, label %52, label %51

51:                                               ; preds = %48
  store i32 0, ptr %3, align 4
  br label %105

52:                                               ; preds = %48
  %53 = load ptr, ptr %4, align 8
  %54 = getelementptr inbounds %struct.mz_zip_archive_tag, ptr %53, i32 0, i32 10
  store ptr @_ZL22mz_zip_file_write_funcPvyPKvm, ptr %54, align 8
  %55 = load ptr, ptr %5, align 8
  %56 = load ptr, ptr %6, align 8
  %57 = getelementptr inbounds %struct.mz_zip_internal_state_tag, ptr %56, i32 0, i32 3
  %58 = load ptr, ptr %57, align 8
  %59 = call ptr @freopen64(ptr noundef %55, ptr noundef @.str.23, ptr noundef %58)
  %60 = load ptr, ptr %6, align 8
  %61 = getelementptr inbounds %struct.mz_zip_internal_state_tag, ptr %60, i32 0, i32 3
  store ptr %59, ptr %61, align 8
  %62 = icmp eq ptr null, %59
  br i1 %62, label %63, label %66

63:                                               ; preds = %52
  %64 = load ptr, ptr %4, align 8
  %65 = call i32 @mz_zip_reader_end(ptr noundef %64)
  store i32 0, ptr %3, align 4
  br label %105

66:                                               ; preds = %52
  br label %95

67:                                               ; preds = %33
  %68 = load ptr, ptr %6, align 8
  %69 = getelementptr inbounds %struct.mz_zip_internal_state_tag, ptr %68, i32 0, i32 4
  %70 = load ptr, ptr %69, align 8
  %71 = icmp ne ptr %70, null
  br i1 %71, label %72, label %87

72:                                               ; preds = %67
  %73 = load ptr, ptr %4, align 8
  %74 = getelementptr inbounds %struct.mz_zip_archive_tag, ptr %73, i32 0, i32 11
  %75 = load ptr, ptr %74, align 8
  %76 = load ptr, ptr %4, align 8
  %77 = icmp ne ptr %75, %76
  br i1 %77, label %78, label %79

78:                                               ; preds = %72
  store i32 0, ptr %3, align 4
  br label %105

79:                                               ; preds = %72
  %80 = load ptr, ptr %6, align 8
  %81 = getelementptr inbounds %struct.mz_zip_internal_state_tag, ptr %80, i32 0, i32 5
  %82 = load i64, ptr %81, align 8
  %83 = load ptr, ptr %6, align 8
  %84 = getelementptr inbounds %struct.mz_zip_internal_state_tag, ptr %83, i32 0, i32 6
  store i64 %82, ptr %84, align 8
  %85 = load ptr, ptr %4, align 8
  %86 = getelementptr inbounds %struct.mz_zip_archive_tag, ptr %85, i32 0, i32 10
  store ptr @_ZL22mz_zip_heap_write_funcPvyPKvm, ptr %86, align 8
  br label %94

87:                                               ; preds = %67
  %88 = load ptr, ptr %4, align 8
  %89 = getelementptr inbounds %struct.mz_zip_archive_tag, ptr %88, i32 0, i32 10
  %90 = load ptr, ptr %89, align 8
  %91 = icmp ne ptr %90, null
  br i1 %91, label %93, label %92

92:                                               ; preds = %87
  store i32 0, ptr %3, align 4
  br label %105

93:                                               ; preds = %87
  br label %94

94:                                               ; preds = %93, %79
  br label %95

95:                                               ; preds = %94, %66
  %96 = load ptr, ptr %4, align 8
  %97 = getelementptr inbounds %struct.mz_zip_archive_tag, ptr %96, i32 0, i32 1
  %98 = load i64, ptr %97, align 8
  %99 = load ptr, ptr %4, align 8
  %100 = getelementptr inbounds %struct.mz_zip_archive_tag, ptr %99, i32 0, i32 0
  store i64 %98, ptr %100, align 8
  %101 = load ptr, ptr %4, align 8
  %102 = getelementptr inbounds %struct.mz_zip_archive_tag, ptr %101, i32 0, i32 3
  store i32 2, ptr %102, align 4
  %103 = load ptr, ptr %4, align 8
  %104 = getelementptr inbounds %struct.mz_zip_archive_tag, ptr %103, i32 0, i32 1
  store i64 0, ptr %104, align 8
  store i32 1, ptr %3, align 4
  br label %105

105:                                              ; preds = %95, %92, %78, %63, %51, %47, %32, %19
  %106 = load i32, ptr %3, align 4
  ret i32 %106
}