; Function Attrs: mustprogress uwtable
define noundef i32 @mz_zip_writer_init_from_reader(ptr noundef %0, ptr noundef %1) local_unnamed_addr #9 {
  %.not = icmp eq ptr %0, null
  br i1 %.not, label %47, label %3

3:                                                ; preds = %2
  %4 = getelementptr inbounds i8, ptr %0, i64 88
  %5 = load ptr, ptr %4, align 8
  %.not29 = icmp eq ptr %5, null
  br i1 %.not29, label %47, label %6

6:                                                ; preds = %3
  %7 = getelementptr inbounds i8, ptr %0, i64 20
  %8 = load i32, ptr %7, align 4
  %.not30 = icmp eq i32 %8, 1
  br i1 %.not30, label %9, label %47

9:                                                ; preds = %6
  %10 = getelementptr inbounds i8, ptr %0, i64 16
  %11 = load i32, ptr %10, align 8
  %12 = icmp eq i32 %11, 65535
  br i1 %12, label %47, label %13

13:                                               ; preds = %9
  %14 = load i64, ptr %0, align 8
  %15 = add i64 %14, -4294967220
  %16 = icmp ult i64 %15, -4294967296
  br i1 %16, label %47, label %17

17:                                               ; preds = %13
  %18 = getelementptr inbounds i8, ptr %5, i64 96
  %19 = load ptr, ptr %18, align 8
  %.not31 = icmp eq ptr %19, null
  br i1 %.not31, label %30, label %20

20:                                               ; preds = %17
  %21 = getelementptr inbounds i8, ptr %0, i64 80
  %22 = load ptr, ptr %21, align 8
  %.not35 = icmp ne ptr %22, %0
  %.not36 = icmp eq ptr %1, null
  %or.cond = or i1 %.not36, %.not35
  br i1 %or.cond, label %47, label %23

23:                                               ; preds = %20
  %24 = getelementptr inbounds i8, ptr %0, i64 72
  store ptr @_ZL22mz_zip_file_write_funcPvyPKvm, ptr %24, align 8
  %25 = load ptr, ptr %18, align 8
  %26 = tail call ptr @freopen64(ptr noundef nonnull %1, ptr noundef nonnull @.str.23, ptr noundef %25)
  store ptr %26, ptr %18, align 8
  %27 = icmp eq ptr %26, null
  br i1 %27, label %28, label %44

28:                                               ; preds = %23
  %29 = tail call i32 @mz_zip_reader_end(ptr noundef nonnull %0), !range !16
  br label %47

30:                                               ; preds = %17
  %31 = getelementptr inbounds i8, ptr %5, i64 104
  %32 = load ptr, ptr %31, align 8
  %.not32 = icmp eq ptr %32, null
  br i1 %.not32, label %41, label %33

33:                                               ; preds = %30
  %34 = getelementptr inbounds i8, ptr %0, i64 80
  %35 = load ptr, ptr %34, align 8
  %.not34 = icmp eq ptr %35, %0
  br i1 %.not34, label %36, label %47

36:                                               ; preds = %33
  %37 = getelementptr inbounds i8, ptr %5, i64 112
  %38 = load i64, ptr %37, align 8
  %39 = getelementptr inbounds i8, ptr %5, i64 120
  store i64 %38, ptr %39, align 8
  %40 = getelementptr inbounds i8, ptr %0, i64 72
  store ptr @_ZL22mz_zip_heap_write_funcPvyPKvm, ptr %40, align 8
  br label %44

41:                                               ; preds = %30
  %42 = getelementptr inbounds i8, ptr %0, i64 72
  %43 = load ptr, ptr %42, align 8
  %.not33 = icmp eq ptr %43, null
  br i1 %.not33, label %47, label %44

44:                                               ; preds = %36, %41, %23
  %45 = getelementptr inbounds i8, ptr %0, i64 8
  %46 = load i64, ptr %45, align 8
  store i64 %46, ptr %0, align 8
  store i32 2, ptr %7, align 4
  store i64 0, ptr %45, align 8
  br label %47

47:                                               ; preds = %41, %33, %20, %9, %13, %2, %3, %6, %44, %28
  %.0 = phi i32 [ 0, %28 ], [ 1, %44 ], [ 0, %6 ], [ 0, %3 ], [ 0, %2 ], [ 0, %13 ], [ 0, %9 ], [ 0, %20 ], [ 0, %33 ], [ 0, %41 ]
  ret i32 %.0
}